; Function Attrs: nounwind uwtable
define dso_local ptr @PyCell_Get(ptr noundef readonly captures(none) %0) local_unnamed_addr #0 {
  %2 = getelementptr i8, ptr %0, i64 8
  %.val3 = load ptr, ptr %2, align 8, !tbaa !98
  %.not = icmp eq ptr %.val3, @PyCell_Type
  br i1 %.not, label %4, label %3

3:                                                ; preds = %1
  tail call void @_PyErr_BadInternalCall(ptr noundef nonnull @.str, i32 noundef 59) #4
  br label %PyCell_GetRef.exit

4:                                                ; preds = %1
  %5 = getelementptr i8, ptr %0, i64 16
  %.val = load ptr, ptr %5, align 8, !tbaa !7
  %.not.i.i.i = icmp eq ptr %.val, null
  br i1 %.not.i.i.i, label %PyCell_GetRef.exit, label %6

6:                                                ; preds = %4
  %7 = load i32, ptr %.val, align 8, !tbaa !4
  %8 = icmp slt i32 %7, 0
  br i1 %8, label %PyCell_GetRef.exit, label %9

9:                                                ; preds = %6
  %10 = add nuw i32 %7, 1
  store i32 %10, ptr %.val, align 8, !tbaa !4
  br label %PyCell_GetRef.exit

PyCell_GetRef.exit:                               ; preds = %9, %6, %4, %3
  %.0 = phi ptr [ null, %3 ], [ null, %4 ], [ %.val, %6 ], [ %.val, %9 ]
  ret ptr %.0
}